; Function Attrs: mustprogress nofree norecurse nosync nounwind willreturn memory(read, inaccessiblemem: none) uwtable
define noundef zeroext i1 @_ZNK32pxrInternal_v0_24__pxrReserved__7GfVec4feqERKNS_7GfVec4hE(ptr nocapture noundef nonnull readonly align 4 dereferenceable(16) %0, ptr nocapture noundef nonnull readonly align 2 dereferenceable(8) %1) local_unnamed_addr #3 align 2 {
  %3 = load float, ptr %0, align 4
  %4 = load i16, ptr %1, align 2
  %5 = zext i16 %4 to i64
  %6 = getelementptr inbounds [65536 x %"union.pxrInternal_v0_24__pxrReserved__::pxr_half::half::uif"], ptr @_ZN32pxrInternal_v0_24__pxrReserved__8pxr_half4half8_toFloatE, i64 0, i64 %5
  %7 = load float, ptr %6, align 4
  %8 = fcmp oeq float %3, %7
  br i1 %8, label %9, label %36

9:                                                ; preds = %2
  %10 = getelementptr inbounds i8, ptr %0, i64 4
  %11 = load float, ptr %10, align 4
  %12 = getelementptr inbounds i8, ptr %1, i64 2
  %13 = load i16, ptr %12, align 2
  %14 = zext i16 %13 to i64
  %15 = getelementptr inbounds [65536 x %"union.pxrInternal_v0_24__pxrReserved__::pxr_half::half::uif"], ptr @_ZN32pxrInternal_v0_24__pxrReserved__8pxr_half4half8_toFloatE, i64 0, i64 %14
  %16 = load float, ptr %15, align 4
  %17 = fcmp oeq float %11, %16
  br i1 %17, label %18, label %36

18:                                               ; preds = %9
  %19 = getelementptr inbounds i8, ptr %0, i64 8
  %20 = load float, ptr %19, align 4
  %21 = getelementptr inbounds i8, ptr %1, i64 4
  %22 = load i16, ptr %21, align 2
  %23 = zext i16 %22 to i64
  %24 = getelementptr inbounds [65536 x %"union.pxrInternal_v0_24__pxrReserved__::pxr_half::half::uif"], ptr @_ZN32pxrInternal_v0_24__pxrReserved__8pxr_half4half8_toFloatE, i64 0, i64 %23
  %25 = load float, ptr %24, align 4
  %26 = fcmp oeq float %20, %25
  br i1 %26, label %27, label %36

27:                                               ; preds = %18
  %28 = getelementptr inbounds i8, ptr %0, i64 12
  %29 = load float, ptr %28, align 4
  %30 = getelementptr inbounds i8, ptr %1, i64 6
  %31 = load i16, ptr %30, align 2
  %32 = zext i16 %31 to i64
  %33 = getelementptr inbounds [65536 x %"union.pxrInternal_v0_24__pxrReserved__::pxr_half::half::uif"], ptr @_ZN32pxrInternal_v0_24__pxrReserved__8pxr_half4half8_toFloatE, i64 0, i64 %32
  %34 = load float, ptr %33, align 4
  %35 = fcmp oeq float %29, %34
  br label %36

36:                                               ; preds = %27, %18, %9, %2
  %37 = phi i1 [ false, %18 ], [ false, %9 ], [ false, %2 ], [ %35, %27 ]
  ret i1 %37
}